; Function Attrs: cold nounwind optsize uwtable
define internal void @h261_close_context(ptr noundef %0) #0 {
  %.not = icmp eq ptr %0, null
  br i1 %.not, label %3, label %2

2:                                                ; preds = %1
  tail call void @ffio_free_dyn_buf(ptr noundef nonnull %0) #4
  br label %3

3:                                                ; preds = %1, %2
  ret void
}